; Function Attrs: mustprogress nofree norecurse nosync nounwind willreturn memory(argmem: write) uwtable
define void @_ZN6icu_776number9Precision20maxSignificantDigitsEi(ptr dead_on_unwind noalias writable writeonly sret(%"class.icu_77::number::Precision") align 8 captures(none) initializes((0, 4), (8, 12), (24, 28)) %0, i32 noundef %1) local_unnamed_addr #11 align 2 {
  %3 = add i32 %1, -1
  %or.cond = icmp ult i32 %3, 999
  br i1 %or.cond, label %4, label %7

4:                                                ; preds = %2
  %5 = trunc nuw i32 %1 to i16
  %6 = getelementptr inbounds nuw i8, ptr %0, i64 8
  store i16 -1, ptr %6, align 8, !alias.scope !53
  %.sroa.5.0..sroa_idx2.i = getelementptr inbounds nuw i8, ptr %0, i64 10
  store i16 -1, ptr %.sroa.5.0..sroa_idx2.i, align 2, !alias.scope !53
  %.sroa.6.0..sroa_idx3.i = getelementptr inbounds nuw i8, ptr %0, i64 12
  store i16 1, ptr %.sroa.6.0..sroa_idx3.i, align 4, !alias.scope !53
  %.sroa.7.0..sroa_idx4.i = getelementptr inbounds nuw i8, ptr %0, i64 14
  store i16 %5, ptr %.sroa.7.0..sroa_idx4.i, align 2, !alias.scope !53
  %.sroa.85.0..sroa_idx.i = getelementptr inbounds nuw i8, ptr %0, i64 16
  store i64 0, ptr %.sroa.85.0..sroa_idx.i, align 8, !tbaa !17, !alias.scope !53
  br label %9

7:                                                ; preds = %2
  %8 = getelementptr inbounds nuw i8, ptr %0, i64 8
  store i32 65810, ptr %8, align 8, !tbaa !17
  br label %9

9:                                                ; preds = %7, %4
  %.sink = phi i32 [ 3, %4 ], [ 9, %7 ]
  store i32 %.sink, ptr %0, align 8, !tbaa !27
  %10 = getelementptr inbounds nuw i8, ptr %0, i64 24
  store i32 0, ptr %10, align 8, !tbaa !31
  ret void
}